target datalayout = "e-m:e-p270:32:32-p271:32:32-p272:64:64-i64:64-i128:128-f80:128-n8:16:32:64-S128"
target triple = "x86_64-pc-linux-gnu"

; Function Attrs: mustprogress nounwind uwtable
define i32 @u_countChar32_77(ptr noundef %0, i32 noundef %1) #3 {
  %3 = alloca i32, align 4
  %4 = alloca ptr, align 8
  %5 = alloca i32, align 4
  %6 = alloca i32, align 4
  %7 = alloca i32, align 4
  %8 = alloca i16, align 2
  store ptr %0, ptr %4, align 8, !tbaa !3
  store i32 %1, ptr %5, align 4, !tbaa !8
  call void @llvm.lifetime.start.p0(i64 4, ptr %6) #7
  %9 = load ptr, ptr %4, align 8, !tbaa !3
  %10 = icmp eq ptr %9, null
  br i1 %10, label %14, label %11

11:                                               ; preds = %2
  %12 = load i32, ptr %5, align 4, !tbaa !8
  %13 = icmp slt i32 %12, -1
  br i1 %13, label %14, label %15

14:                                               ; preds = %11, %2
  store i32 0, ptr %3, align 4
  store i32 1, ptr %7, align 4
  br label %80

15:                                               ; preds = %11
  store i32 0, ptr %6, align 4, !tbaa !8
  %16 = load i32, ptr %5, align 4, !tbaa !8
  %17 = icmp sge i32 %16, 0
  br i1 %17, label %18, label %52

18:                                               ; preds = %15
  br label %19

19:                                               ; preds = %50, %18
  %20 = load i32, ptr %5, align 4, !tbaa !8
  %21 = icmp sgt i32 %20, 0
  br i1 %21, label %22, label %51

22:                                               ; preds = %19
  %23 = load i32, ptr %6, align 4, !tbaa !8
  %24 = add nsw i32 %23, 1
  store i32 %24, ptr %6, align 4, !tbaa !8
  %25 = load ptr, ptr %4, align 8, !tbaa !3
  %26 = load i16, ptr %25, align 2, !tbaa !10
  %27 = zext i16 %26 to i32
  %28 = and i32 %27, -1024
  %29 = icmp eq i32 %28, 55296
  br i1 %29, label %30, label %45

30:                                               ; preds = %22
  %31 = load i32, ptr %5, align 4, !tbaa !8
  %32 = icmp sge i32 %31, 2
  br i1 %32, label %33, label %45

33:                                               ; preds = %30
  %34 = load ptr, ptr %4, align 8, !tbaa !3
  %35 = getelementptr inbounds i16, ptr %34, i64 1
  %36 = load i16, ptr %35, align 2, !tbaa !10
  %37 = zext i16 %36 to i32
  %38 = and i32 %37, -1024
  %39 = icmp eq i32 %38, 56320
  br i1 %39, label %40, label %45

40:                                               ; preds = %33
  %41 = load ptr, ptr %4, align 8, !tbaa !3
  %42 = getelementptr inbounds i16, ptr %41, i64 2
  store ptr %42, ptr %4, align 8, !tbaa !3
  %43 = load i32, ptr %5, align 4, !tbaa !8
  %44 = sub nsw i32 %43, 2
  store i32 %44, ptr %5, align 4, !tbaa !8
  br label %50

45:                                               ; preds = %33, %30, %22
  %46 = load ptr, ptr %4, align 8, !tbaa !3
  %47 = getelementptr inbounds nuw i16, ptr %46, i32 1
  store ptr %47, ptr %4, align 8, !tbaa !3
  %48 = load i32, ptr %5, align 4, !tbaa !8
  %49 = add nsw i32 %48, -1
  store i32 %49, ptr %5, align 4, !tbaa !8
  br label %50

50:                                               ; preds = %45, %40
  br label %19, !llvm.loop !62

51:                                               ; preds = %19
  br label %78

52:                                               ; preds = %15
  call void @llvm.lifetime.start.p0(i64 2, ptr %8) #7
  br label %53

53:                                               ; preds = %76, %52
  %54 = load ptr, ptr %4, align 8, !tbaa !3
  %55 = getelementptr inbounds nuw i16, ptr %54, i32 1
  store ptr %55, ptr %4, align 8, !tbaa !3
  %56 = load i16, ptr %54, align 2, !tbaa !10
  store i16 %56, ptr %8, align 2, !tbaa !10
  %57 = zext i16 %56 to i32
  %58 = icmp eq i32 %57, 0
  br i1 %58, label %59, label %60

59:                                               ; preds = %53
  br label %77

60:                                               ; preds = %53
  %61 = load i32, ptr %6, align 4, !tbaa !8
  %62 = add nsw i32 %61, 1
  store i32 %62, ptr %6, align 4, !tbaa !8
  %63 = load i16, ptr %8, align 2, !tbaa !10
  %64 = zext i16 %63 to i32
  %65 = and i32 %64, -1024
  %66 = icmp eq i32 %65, 55296
  br i1 %66, label %67, label %76

67:                                               ; preds = %60
  %68 = load ptr, ptr %4, align 8, !tbaa !3
  %69 = load i16, ptr %68, align 2, !tbaa !10
  %70 = zext i16 %69 to i32
  %71 = and i32 %70, -1024
  %72 = icmp eq i32 %71, 56320
  br i1 %72, label %73, label %76

73:                                               ; preds = %67
  %74 = load ptr, ptr %4, align 8, !tbaa !3
  %75 = getelementptr inbounds nuw i16, ptr %74, i32 1
  store ptr %75, ptr %4, align 8, !tbaa !3
  br label %76

76:                                               ; preds = %73, %67, %60
  br label %53, !llvm.loop !63

77:                                               ; preds = %59
  call void @llvm.lifetime.end.p0(i64 2, ptr %8) #7
  br label %78

78:                                               ; preds = %77, %51
  %79 = load i32, ptr %6, align 4, !tbaa !8
  store i32 %79, ptr %3, align 4
  store i32 1, ptr %7, align 4
  br label %80

80:                                               ; preds = %78, %14
  call void @llvm.lifetime.end.p0(i64 4, ptr %6) #7
  %81 = load i32, ptr %3, align 4
  ret i32 %81
}