; Function Attrs: mustprogress nofree norecurse nosync nounwind willreturn memory(argmem: read) uwtable
define i32 @u_countChar32_77(ptr noundef readonly %0, i32 noundef %1) local_unnamed_addr #2 {
  %3 = icmp eq ptr %0, null
  %4 = icmp slt i32 %1, -1
  %or.cond = or i1 %3, %4
  br i1 %or.cond, label %.loopexit, label %5

5:                                                ; preds = %2
  %6 = icmp sgt i32 %1, -1
  br i1 %6, label %.preheader, label %.preheader30

.preheader30:                                     ; preds = %5
  %7 = load i16, ptr %0, align 2, !tbaa !3
  %8 = icmp eq i16 %7, 0
  br i1 %8, label %.loopexit, label %.lr.ph

.preheader:                                       ; preds = %5
  %.not34 = icmp eq i32 %1, 0
  br i1 %.not34, label %.loopexit, label %.lr.ph38

.lr.ph38:                                         ; preds = %.preheader, %20
  %.02137 = phi i32 [ %9, %20 ], [ 0, %.preheader ]
  %.02236 = phi i32 [ %22, %20 ], [ %1, %.preheader ]
  %.02435 = phi ptr [ %21, %20 ], [ %0, %.preheader ]
  %9 = add nuw nsw i32 %.02137, 1
  %10 = load i16, ptr %.02435, align 2, !tbaa !3
  %11 = and i16 %10, -1024
  %12 = icmp eq i16 %11, -10240
  %13 = icmp ne i32 %.02236, 1
  %or.cond3 = and i1 %13, %12
  br i1 %or.cond3, label %14, label %19

14:                                               ; preds = %.lr.ph38
  %15 = getelementptr inbounds nuw i8, ptr %.02435, i64 2
  %16 = load i16, ptr %15, align 2, !tbaa !3
  %17 = and i16 %16, -1024
  %18 = icmp eq i16 %17, -9216
  br i1 %18, label %20, label %19

19:                                               ; preds = %14, %.lr.ph38
  br label %20

20:                                               ; preds = %14, %19
  %.sink44 = phi i64 [ 2, %19 ], [ 4, %14 ]
  %.sink = phi i32 [ -1, %19 ], [ -2, %14 ]
  %21 = getelementptr inbounds nuw i8, ptr %.02435, i64 %.sink44
  %22 = add nsw i32 %.02236, %.sink
  %.not = icmp eq i32 %22, 0
  br i1 %.not, label %.loopexit, label %.lr.ph38, !llvm.loop !53

.lr.ph:                                           ; preds = %.preheader30, %33
  %23 = phi i16 [ %34, %33 ], [ %7, %.preheader30 ]
  %.233 = phi i32 [ %25, %33 ], [ 0, %.preheader30 ]
  %.22632 = phi ptr [ %.3, %33 ], [ %0, %.preheader30 ]
  %24 = getelementptr inbounds nuw i8, ptr %.22632, i64 2
  %25 = add nuw nsw i32 %.233, 1
  %26 = and i16 %23, -1024
  %27 = icmp eq i16 %26, -10240
  br i1 %27, label %28, label %33

28:                                               ; preds = %.lr.ph
  %29 = load i16, ptr %24, align 2, !tbaa !3
  %30 = and i16 %29, -1024
  %31 = icmp eq i16 %30, -9216
  %32 = getelementptr inbounds nuw i8, ptr %.22632, i64 4
  %spec.select = select i1 %31, ptr %32, ptr %24
  br label %33

33:                                               ; preds = %28, %.lr.ph
  %.3 = phi ptr [ %24, %.lr.ph ], [ %spec.select, %28 ]
  %34 = load i16, ptr %.3, align 2, !tbaa !3
  %35 = icmp eq i16 %34, 0
  br i1 %35, label %.loopexit, label %.lr.ph, !llvm.loop !54

.loopexit:                                        ; preds = %33, %20, %.preheader30, %.preheader, %2
  %.0 = phi i32 [ 0, %2 ], [ 0, %.preheader ], [ 0, %.preheader30 ], [ %9, %20 ], [ %25, %33 ]
  ret i32 %.0
}